target datalayout = "e-m:e-p270:32:32-p271:32:32-p272:64:64-i64:64-i128:128-f80:128-n8:16:32:64-S128"
target triple = "x86_64-pc-linux-gnu"

@.str.39 = private unnamed_addr constant [26 x i8] c"android-bluetooth-hcidump\00", align 1
@.str.40 = private unnamed_addr constant [34 x i8] c"android-bluetooth-external-parser\00", align 1
@.str.41 = private unnamed_addr constant [30 x i8] c"android-bluetooth-btsnoop-net\00", align 1
@.str.42 = private unnamed_addr constant [16 x i8] c"android-tcpdump\00", align 1
@.str.80 = private unnamed_addr constant [20 x i8] c"android-logcat-main\00", align 1
@.str.82 = private unnamed_addr constant [22 x i8] c"android-logcat-system\00", align 1
@.str.84 = private unnamed_addr constant [21 x i8] c"android-logcat-radio\00", align 1
@.str.86 = private unnamed_addr constant [22 x i8] c"android-logcat-events\00", align 1
@.str.88 = private unnamed_addr constant [25 x i8] c"android-logcat-text-main\00", align 1
@.str.89 = private unnamed_addr constant [27 x i8] c"android-logcat-text-system\00", align 1
@.str.90 = private unnamed_addr constant [26 x i8] c"android-logcat-text-radio\00", align 1
@.str.91 = private unnamed_addr constant [27 x i8] c"android-logcat-text-events\00", align 1
@.str.92 = private unnamed_addr constant [26 x i8] c"android-logcat-text-crash\00", align 1
@.str.137 = private unnamed_addr constant [12 x i8] c"BluetoothH4\00", align 1
@.str.138 = private unnamed_addr constant [54 x i8] c"Bluetooth HCI UART transport layer plus pseudo-header\00", align 1
@.str.139 = private unnamed_addr constant [10 x i8] c"Upper PDU\00", align 1
@.str.140 = private unnamed_addr constant [9 x i8] c"Ethernet\00", align 1

; Function Attrs: null_pointer_is_valid sspstrong uwtable
define internal zeroext i1 @is_logcat_text_interface(ptr noundef %0) #0 {
  %2 = alloca ptr, align 8
  store ptr %0, ptr %2, align 8
  %3 = load ptr, ptr %2, align 8
  %4 = call i32 @is_specified_interface(ptr noundef %3, ptr noundef @.str.88)
  %5 = icmp ne i32 %4, 0
  br i1 %5, label %22, label %6

6:                                                ; preds = %1
  %7 = load ptr, ptr %2, align 8
  %8 = call i32 @is_specified_interface(ptr noundef %7, ptr noundef @.str.89)
  %9 = icmp ne i32 %8, 0
  br i1 %9, label %22, label %10

10:                                               ; preds = %6
  %11 = load ptr, ptr %2, align 8
  %12 = call i32 @is_specified_interface(ptr noundef %11, ptr noundef @.str.90)
  %13 = icmp ne i32 %12, 0
  br i1 %13, label %22, label %14

14:                                               ; preds = %10
  %15 = load ptr, ptr %2, align 8
  %16 = call i32 @is_specified_interface(ptr noundef %15, ptr noundef @.str.91)
  %17 = icmp ne i32 %16, 0
  br i1 %17, label %22, label %18

18:                                               ; preds = %14
  %19 = load ptr, ptr %2, align 8
  %20 = call i32 @is_specified_interface(ptr noundef %19, ptr noundef @.str.92)
  %21 = icmp ne i32 %20, 0
  br label %22

22:                                               ; preds = %18, %14, %10, %6, %1
  %23 = phi i1 [ true, %14 ], [ true, %10 ], [ true, %6 ], [ true, %1 ], [ %21, %18 ]
  ret i1 %23
}

; Function Attrs: null_pointer_is_valid sspstrong uwtable
define internal zeroext i1 @is_logcat_interface(ptr noundef %0) #0 {
  %2 = alloca ptr, align 8
  store ptr %0, ptr %2, align 8
  %3 = load ptr, ptr %2, align 8
  %4 = call i32 @is_specified_interface(ptr noundef %3, ptr noundef @.str.80)
  %5 = icmp ne i32 %4, 0
  br i1 %5, label %18, label %6

6:                                                ; preds = %1
  %7 = load ptr, ptr %2, align 8
  %8 = call i32 @is_specified_interface(ptr noundef %7, ptr noundef @.str.82)
  %9 = icmp ne i32 %8, 0
  br i1 %9, label %18, label %10

10:                                               ; preds = %6
  %11 = load ptr, ptr %2, align 8
  %12 = call i32 @is_specified_interface(ptr noundef %11, ptr noundef @.str.84)
  %13 = icmp ne i32 %12, 0
  br i1 %13, label %18, label %14

14:                                               ; preds = %10
  %15 = load ptr, ptr %2, align 8
  %16 = call i32 @is_specified_interface(ptr noundef %15, ptr noundef @.str.86)
  %17 = icmp ne i32 %16, 0
  br label %18

18:                                               ; preds = %14, %10, %6, %1
  %19 = phi i1 [ true, %10 ], [ true, %6 ], [ true, %1 ], [ %17, %14 ]
  ret i1 %19
}

; Function Attrs: null_pointer_is_valid sspstrong uwtable
define internal void @new_fake_interface_for_list_dlts(ptr noundef %0, ptr noundef %1) #0 {
  %3 = alloca ptr, align 8
  %4 = alloca ptr, align 8
  store ptr %0, ptr %3, align 8
  store ptr %1, ptr %4, align 8
  %5 = load ptr, ptr %4, align 8
  %6 = call i32 @is_specified_interface(ptr noundef %5, ptr noundef @.str.39)
  %7 = icmp ne i32 %6, 0
  br i1 %7, label %16, label %8

8:                                                ; preds = %2
  %9 = load ptr, ptr %4, align 8
  %10 = call i32 @is_specified_interface(ptr noundef %9, ptr noundef @.str.40)
  %11 = icmp ne i32 %10, 0
  br i1 %11, label %16, label %12

12:                                               ; preds = %8
  %13 = load ptr, ptr %4, align 8
  %14 = call i32 @is_specified_interface(ptr noundef %13, ptr noundef @.str.41)
  %15 = icmp ne i32 %14, 0
  br i1 %15, label %16, label %20

16:                                               ; preds = %12, %8, %2
  %17 = load ptr, ptr %3, align 8
  %18 = load ptr, ptr %4, align 8
  %19 = load ptr, ptr %4, align 8
  call void @extcap_base_register_interface_ext(ptr noundef %17, ptr noundef %18, ptr noundef %19, i16 noundef zeroext 99, ptr noundef @.str.137, ptr noundef @.str.138)
  br label %40

20:                                               ; preds = %12
  %21 = load ptr, ptr %4, align 8
  %22 = call zeroext i1 @is_logcat_interface(ptr noundef %21)
  br i1 %22, label %26, label %23

23:                                               ; preds = %20
  %24 = load ptr, ptr %4, align 8
  %25 = call zeroext i1 @is_logcat_text_interface(ptr noundef %24)
  br i1 %25, label %26, label %30

26:                                               ; preds = %23, %20
  %27 = load ptr, ptr %3, align 8
  %28 = load ptr, ptr %4, align 8
  %29 = load ptr, ptr %4, align 8
  call void @extcap_base_register_interface(ptr noundef %27, ptr noundef %28, ptr noundef %29, i16 noundef zeroext 252, ptr noundef @.str.139)
  br label %39

30:                                               ; preds = %23
  %31 = load ptr, ptr %4, align 8
  %32 = call i32 @is_specified_interface(ptr noundef %31, ptr noundef @.str.42)
  %33 = icmp ne i32 %32, 0
  br i1 %33, label %34, label %38

34:                                               ; preds = %30
  %35 = load ptr, ptr %3, align 8
  %36 = load ptr, ptr %4, align 8
  %37 = load ptr, ptr %4, align 8
  call void @extcap_base_register_interface(ptr noundef %35, ptr noundef %36, ptr noundef %37, i16 noundef zeroext 1, ptr noundef @.str.140)
  br label %38

38:                                               ; preds = %34, %30
  br label %39

39:                                               ; preds = %38, %26
  br label %40

40:                                               ; preds = %39, %16
  ret void
}