; Function Attrs: null_pointer_is_valid sspstrong uwtable
define internal fastcc void @new_fake_interface_for_list_dlts(ptr noundef %0, ptr noundef %1) unnamed_addr #0 {
  %3 = tail call i32 @strncmp(ptr noundef readonly %1, ptr noundef nonnull dereferenceable(26) @.str.39, i64 noundef 25) #22
  %.not.i.not = icmp eq i32 %3, 0
  br i1 %.not.i.not, label %8, label %4

4:                                                ; preds = %2
  %5 = tail call i32 @strncmp(ptr noundef readonly %1, ptr noundef nonnull dereferenceable(34) @.str.40, i64 noundef 33) #22
  %.not.i18.not = icmp eq i32 %5, 0
  br i1 %.not.i18.not, label %8, label %6

6:                                                ; preds = %4
  %7 = tail call i32 @strncmp(ptr noundef readonly %1, ptr noundef nonnull dereferenceable(30) @.str.41, i64 noundef 29) #22
  %.not.i19.not = icmp eq i32 %7, 0
  br i1 %.not.i19.not, label %8, label %9

8:                                                ; preds = %6, %4, %2
  tail call void @extcap_base_register_interface_ext(ptr noundef %0, ptr noundef %1, ptr noundef %1, i16 noundef zeroext 99, ptr noundef nonnull @.str.137, ptr noundef nonnull @.str.138)
  br label %28

9:                                                ; preds = %6
  %10 = tail call i32 @strncmp(ptr noundef readonly %1, ptr noundef nonnull dereferenceable(20) @.str.80, i64 noundef 19) #22
  %.not.i.not.i = icmp eq i32 %10, 0
  br i1 %.not.i.not.i, label %is_logcat_interface.exit.thread, label %11

11:                                               ; preds = %9
  %12 = tail call i32 @strncmp(ptr noundef readonly %1, ptr noundef nonnull dereferenceable(22) @.str.82, i64 noundef 21) #22
  %.not.i6.not.i = icmp eq i32 %12, 0
  br i1 %.not.i6.not.i, label %is_logcat_interface.exit.thread, label %13

13:                                               ; preds = %11
  %14 = tail call i32 @strncmp(ptr noundef readonly %1, ptr noundef nonnull dereferenceable(21) @.str.84, i64 noundef 20) #22
  %.not.i7.not.i = icmp eq i32 %14, 0
  br i1 %.not.i7.not.i, label %is_logcat_interface.exit.thread, label %is_logcat_interface.exit

is_logcat_interface.exit:                         ; preds = %13
  %15 = tail call i32 @strncmp(ptr noundef readonly %1, ptr noundef nonnull dereferenceable(22) @.str.86, i64 noundef 21) #22
  %.not.i8.i = icmp eq i32 %15, 0
  br i1 %.not.i8.i, label %is_logcat_interface.exit.thread, label %16

16:                                               ; preds = %is_logcat_interface.exit
  %17 = tail call i32 @strncmp(ptr noundef readonly %1, ptr noundef nonnull dereferenceable(25) @.str.88, i64 noundef 24) #22
  %.not.i.not.i20 = icmp eq i32 %17, 0
  br i1 %.not.i.not.i20, label %is_logcat_interface.exit.thread, label %18

18:                                               ; preds = %16
  %19 = tail call i32 @strncmp(ptr noundef readonly %1, ptr noundef nonnull dereferenceable(27) @.str.89, i64 noundef 26) #22
  %.not.i8.not.i = icmp eq i32 %19, 0
  br i1 %.not.i8.not.i, label %is_logcat_interface.exit.thread, label %20

20:                                               ; preds = %18
  %21 = tail call i32 @strncmp(ptr noundef readonly %1, ptr noundef nonnull dereferenceable(26) @.str.90, i64 noundef 25) #22
  %.not.i9.not.i = icmp eq i32 %21, 0
  br i1 %.not.i9.not.i, label %is_logcat_interface.exit.thread, label %22

22:                                               ; preds = %20
  %23 = tail call i32 @strncmp(ptr noundef readonly %1, ptr noundef nonnull dereferenceable(27) @.str.91, i64 noundef 26) #22
  %.not.i10.not.i = icmp eq i32 %23, 0
  br i1 %.not.i10.not.i, label %is_logcat_interface.exit.thread, label %is_logcat_text_interface.exit

is_logcat_text_interface.exit:                    ; preds = %22
  %24 = tail call fastcc i32 @is_specified_interface(ptr noundef readonly %1, ptr noundef nonnull @.str.92)
  %.not = icmp eq i32 %24, 0
  br i1 %.not, label %25, label %is_logcat_interface.exit.thread

is_logcat_interface.exit.thread:                  ; preds = %16, %18, %20, %22, %9, %11, %13, %is_logcat_text_interface.exit, %is_logcat_interface.exit
  tail call void @extcap_base_register_interface(ptr noundef %0, ptr noundef %1, ptr noundef %1, i16 noundef zeroext 252, ptr noundef nonnull @.str.139)
  br label %28

25:                                               ; preds = %is_logcat_text_interface.exit
  %26 = tail call fastcc i32 @is_specified_interface(ptr noundef %1, ptr noundef nonnull @.str.42)
  %.not17 = icmp eq i32 %26, 0
  br i1 %.not17, label %28, label %27

27:                                               ; preds = %25
  tail call void @extcap_base_register_interface(ptr noundef %0, ptr noundef %1, ptr noundef %1, i16 noundef zeroext 1, ptr noundef nonnull @.str.140)
  br label %28

28:                                               ; preds = %is_logcat_interface.exit.thread, %27, %25, %8
  ret void
}